target datalayout = "e-m:e-p270:32:32-p271:32:32-p272:64:64-i64:64-i128:128-f80:128-n8:16:32:64-S128"
target triple = "x86_64-pc-linux-gnu"

%struct.llama_model = type { i32, i32, %"class.std::__cxx11::basic_string", %struct.llama_hparams, %struct.llama_vocab, ptr, ptr, ptr, ptr, ptr, ptr, ptr, ptr, ptr, ptr, ptr, ptr, ptr, ptr, ptr, ptr, %"class.std::vector", %struct.llama_model_params, %"class.std::unordered_map", %"class.std::vector.18", %"class.std::vector.23", i64, i64, %"class.std::unique_ptr.28" }
%"class.std::__cxx11::basic_string" = type { %"struct.std::__cxx11::basic_string<char>::_Alloc_hider", i64, %union.anon }
%"struct.std::__cxx11::basic_string<char>::_Alloc_hider" = type { ptr }
%union.anon = type { i64, [8 x i8] }
%struct.llama_hparams = type { i8, i8, i8, i8, i32, i32, i32, i32, i32, i32, i32, i32, i32, i32, i32, %struct.llama_hparams_posnet, %struct.llama_hparams_convnext, %"struct.std::array", %"struct.std::array", %"struct.std::array", i32, i32, i32, i32, i32, i32, i32, float, i8, i32, float, float, float, float, float, i32, i32, i32, i32, i32, float, float, float, i32, float, %"struct.std::array.6", i32, i32, i32, i32, i8, float, float, float, float, float, float, i8, i8, i8, i32, i32, i32, i32 }
%struct.llama_hparams_posnet = type { i32, i32 }
%struct.llama_hparams_convnext = type { i32, i32 }
%"struct.std::array" = type { [512 x i32] }
%"struct.std::array.6" = type { [4 x i32] }
%struct.llama_vocab = type { %"class.std::unique_ptr" }
%"class.std::unique_ptr" = type { %"struct.std::__uniq_ptr_data" }
%"struct.std::__uniq_ptr_data" = type { %"class.std::__uniq_ptr_impl" }
%"class.std::__uniq_ptr_impl" = type { %"class.std::tuple" }
%"class.std::tuple" = type { %"struct.std::_Tuple_impl" }
%"struct.std::_Tuple_impl" = type { %"struct.std::_Head_base.8" }
%"struct.std::_Head_base.8" = type { ptr }
%"class.std::vector" = type { %"struct.std::_Vector_base" }
%"struct.std::_Vector_base" = type { %"struct.std::_Vector_base<llama_layer, std::allocator<llama_layer>>::_Vector_impl" }
%"struct.std::_Vector_base<llama_layer, std::allocator<llama_layer>>::_Vector_impl" = type { %"struct.std::_Vector_base<llama_layer, std::allocator<llama_layer>>::_Vector_impl_data" }
%"struct.std::_Vector_base<llama_layer, std::allocator<llama_layer>>::_Vector_impl_data" = type { ptr, ptr, ptr }
%struct.llama_model_params = type { ptr, i32, i32, i32, ptr, ptr, ptr, ptr, i8, i8, i8, i8 }
%"class.std::unordered_map" = type { %"class.std::_Hashtable" }
%"class.std::_Hashtable" = type { ptr, i64, %"struct.std::__detail::_Hash_node_base", i64, %"struct.std::__detail::_Prime_rehash_policy", ptr }
%"struct.std::__detail::_Hash_node_base" = type { ptr }
%"struct.std::__detail::_Prime_rehash_policy" = type { float, i64 }
%"class.std::vector.18" = type { %"struct.std::_Vector_base.19" }
%"struct.std::_Vector_base.19" = type { %"struct.std::_Vector_base<ggml_backend_device *, std::allocator<ggml_backend_device *>>::_Vector_impl" }
%"struct.std::_Vector_base<ggml_backend_device *, std::allocator<ggml_backend_device *>>::_Vector_impl" = type { %"struct.std::_Vector_base<ggml_backend_device *, std::allocator<ggml_backend_device *>>::_Vector_impl_data" }
%"struct.std::_Vector_base<ggml_backend_device *, std::allocator<ggml_backend_device *>>::_Vector_impl_data" = type { ptr, ptr, ptr }
%"class.std::vector.23" = type { %"struct.std::_Vector_base.24" }
%"struct.std::_Vector_base.24" = type { %"struct.std::_Vector_base<std::pair<std::__cxx11::basic_string<char>, ggml_tensor *>, std::allocator<std::pair<std::__cxx11::basic_string<char>, ggml_tensor *>>>::_Vector_impl" }
%"struct.std::_Vector_base<std::pair<std::__cxx11::basic_string<char>, ggml_tensor *>, std::allocator<std::pair<std::__cxx11::basic_string<char>, ggml_tensor *>>>::_Vector_impl" = type { %"struct.std::_Vector_base<std::pair<std::__cxx11::basic_string<char>, ggml_tensor *>, std::allocator<std::pair<std::__cxx11::basic_string<char>, ggml_tensor *>>>::_Vector_impl_data" }
%"struct.std::_Vector_base<std::pair<std::__cxx11::basic_string<char>, ggml_tensor *>, std::allocator<std::pair<std::__cxx11::basic_string<char>, ggml_tensor *>>>::_Vector_impl_data" = type { ptr, ptr, ptr }
%"class.std::unique_ptr.28" = type { %"struct.std::__uniq_ptr_data.29" }
%"struct.std::__uniq_ptr_data.29" = type { %"class.std::__uniq_ptr_impl.30" }
%"class.std::__uniq_ptr_impl.30" = type { %"class.std::tuple.31" }
%"class.std::tuple.31" = type { %"struct.std::_Tuple_impl.32" }
%"struct.std::_Tuple_impl.32" = type { %"struct.std::_Head_base.35" }
%"struct.std::_Head_base.35" = type { ptr }
%struct.LLM_KV = type { i32, ptr }

; Function Attrs: mustprogress uwtable
define void @_ZN11llama_model10load_vocabER18llama_model_loader(ptr noundef nonnull align 8 dereferenceable(6784) %0, ptr noundef nonnull align 8 dereferenceable(320) %1) #4 align 2 {
  %3 = alloca ptr, align 8
  %4 = alloca ptr, align 8
  %5 = alloca %struct.LLM_KV, align 8
  store ptr %0, ptr %3, align 8, !tbaa !23
  store ptr %1, ptr %4, align 8, !tbaa !199
  %6 = load ptr, ptr %3, align 8
  call void @llvm.lifetime.start.p0(i64 16, ptr %5) #5
  %7 = getelementptr inbounds nuw %struct.llama_model, ptr %6, i32 0, i32 1
  %8 = load i32, ptr %7, align 4, !tbaa !86
  call void @_ZN6LLM_KVC1E8llm_archPKc(ptr noundef nonnull align 8 dereferenceable(16) %5, i32 noundef %8, ptr noundef null)
  %9 = getelementptr inbounds nuw %struct.llama_model, ptr %6, i32 0, i32 4
  %10 = load ptr, ptr %4, align 8, !tbaa !199
  call void @_ZN11llama_vocab4loadER18llama_model_loaderRK6LLM_KV(ptr noundef nonnull align 8 dereferenceable(8) %9, ptr noundef nonnull align 8 dereferenceable(320) %10, ptr noundef nonnull align 8 dereferenceable(16) %5)
  call void @llvm.lifetime.end.p0(i64 16, ptr %5) #5
  ret void
}