; Function Attrs: mustprogress uwtable
define void @_ZN11llama_model10load_vocabER18llama_model_loader(ptr noundef nonnull align 8 dereferenceable(6784) %0, ptr noundef nonnull align 8 dereferenceable(320) %1) local_unnamed_addr #3 align 2 {
  %3 = alloca %struct.LLM_KV, align 8
  call void @llvm.lifetime.start.p0(i64 16, ptr nonnull %3) #35
  %4 = getelementptr inbounds nuw i8, ptr %0, i64 4
  %5 = load i32, ptr %4, align 4, !tbaa !81
  call void @_ZN6LLM_KVC1E8llm_archPKc(ptr noundef nonnull align 8 dereferenceable(16) %3, i32 noundef %5, ptr noundef null)
  %6 = getelementptr inbounds nuw i8, ptr %0, i64 6432
  call void @_ZN11llama_vocab4loadER18llama_model_loaderRK6LLM_KV(ptr noundef nonnull align 8 dereferenceable(8) %6, ptr noundef nonnull align 8 dereferenceable(320) %1, ptr noundef nonnull align 8 dereferenceable(16) %3)
  call void @llvm.lifetime.end.p0(i64 16, ptr nonnull %3) #35
  ret void
}